c__builtin__
set
p1
((lp2
Vbusiness/consumer_product/product_line
p3
aVwine/wine/wine_sub_region
p4
aVfood/ingredient/compatible_with_dietary_restrictions
p5
aVuser/robert/us_congress/congressional_district/state
p6
aVbase/gossipgirlxxx/character/played_by
p7
aVbase/pipesmoking/component_tobacco/pipe_tobaccos_with_this_component
p8
aVtv/tv_writer/episodes_written
p9
aVmilitary/armed_force/units
p10
aVmusic/genre/artists
p11
aVbase/bioventurist/product/technology_involved
p12
aVbase/ikariam/ikariam_research/category
p13
aVbase/cars_refactor/company/primary_make
p14
aVbroadcast/radio_station/owner
p15
aVmedicine/drug/route_of_administration
p16
aVuser/skud/embassies_and_consulates/embassy/to_country
p17
aVlocation/administrative_division/country
p18
aVtheater/play/genre
p19
aVbase/formula1/formula_1_driver/drivers_championship
p20
aVastronomy/astronomical_discovery/discovery_site
p21
aVmilitary/military_unit/place_of_origin
p22
aVbiology/animal_breed/coloring
p23
aVbase/aareas/schema/administrative_area_type/expected_codes
p24
aVtravel/travel_destination/local_transportation
p25
aVcvg/computer_videogame/sequel
p26
aVfictional_universe/fictional_universe/created_by
p27
aVbase/biblioness/bibs_location/country
p28
aVcvg/cvg_publisher/games_published
p29
aVfood/candy_bar_manufacturer/candy_bars
p30
aVbase/recordingstudios/recording_studio/albums_recorded_here
p31
aVpeople/cause_of_death/people
p32
aVcomputer/programming_language/language_designers
p33
aVfilm/film_location/featured_in_films
p34
aVmedicine/icd_9_cm_classification/includes_classifications
p35
aVinternet/website_category/sites
p36
aVbase/petbreeds/family_friendly/dog_breed
p37
aVastronomy/star_system/planetary_system
p38
aVmeteorology/tropical_cyclone/tropical_cyclone_season
p39
aVarchitecture/architect/architectural_style
p40
aVtheater/play/soundtracks
p41
aVfictional_universe/fictional_setting/fictional_characters_born_here
p42
aVbook/book_edition/place_of_publication
p43
aVpeople/person/religion
p44
aVgeography/mountain_pass/transversed_by
p45
aVbase/filmcameras/camera/viewfinder_type
p46
aVbook/magazine_issue/interior_illustrations_by
p47
aVlocation/hud_county_place/county
p48
aVbase/cars_refactor/model/generations
p49
aVcvg/computer_videogame/game_series
p50
aVfood/cheese/source_of_milk
p51
aVuser/narphorium/default_domain/base_equivalent_location/base
p52
aVbase/christmas/christmas_carol/language
p53
aVbroadcast/tv_channel/network
p54
aVcomputer/file_format_genre/file_formats
p55
aVmedia_common/adapted_work/adaptations
p56
aVsports/sport/teams
p57
aVbase/aareas/schema/administrative_area_type/sovereignty
p58
aVbiology/animal_breed/breed_of
p59
aVaward/competition/winner
p60
aVboats/ship/hull_material
p61
aVroyalty/noble_title/noble_rank
p62
aVtv/tv_program/theme_song
p63
aVaward/award_category/presenting_organization
p64
aVfood/ingredient/dishes
p65
aVcvg/computer_videogame/publisher
p66
aVfictional_universe/medical_condition_in_fiction/characters_with_this_condition
p67
aVprotected_sites/protected_site/system
p68
aVmedicine/drug_administration_route/drug_formulations
p69
aVcomic_books/comic_book_character/regular_featured_appearances
p70
aVevent/disaster/victims
p71
aVtime/day_of_year/calendar_system
p72
aVbase/formula1/formula_1_driver/last_race
p73
aVtransportation/road/orientation
p74
aVuser/kake/iron_chef/iron_chef/episodes_appeared_in
p75
aVmedicine/drug_ingredient/active_moiety_of_formulation
p76
aVcvg/computer_videogame/designers
p77
aVbase/digitalcameras/slr_lens/lens_type
p78
aVmedicine/manufactured_drug_form/shape
p79
aVcomic_books/comic_book_character/cover_appearances
p80
aVbase/services/accounting_service/accounting_service_secialties
p81
aVcomputer/programming_language/influenced
p82
aVbase/minerals/crystalline_material/polymorphic_forms
p83
aVastronomy/near_earth_object/near_earth_object_classification
p84
aVfilm/film_story_contributor/film_story_credits
p85
aVmedicine/physician/medical_specialty
p86
aVfood/dietary_restriction/incompatible_ingredients
p87
aVcomic_books/comic_book_inker/comic_books_inked
p88
aVaviation/aircraft_model/variants
p89
aVsymbols/namesake/named_after
p90
aVreligion/religion/beliefs
p91
aVuser/szaijan/fantasy_football/player/nfl_team
p92
aVbase/skills/skilled_role/performs
p93
aVfood/diet_follower/follows_diet
p94
aVconferences/conference_series/subject
p95
aVbase/saturdaynightlive/snl_episode/host
p96
aVdistilled_spirits/spirit_producing_region/distilleries
p97
aVbiology/breed_coloring/breeds
p98
aVmedicine/drug_dosage_flavor/drugs_with_this_flavor
p99
aVbase/change/process/part_of_process
p100
aVfilm/film_casting_director/films_casting_directed
p101
aVorganization/organization/sectors
p102
aVbase/locations/states_and_provences/country
p103
aVolympics/olympic_event/olympic_games_contested
p104
aVaward/recurring_competition/individual_competitions
p105
aVbase/ports/port_of_call/harbor_type
p106
aVtransportation/bridge/bridge_type
p107
aVbook/book_edition/isbn
p108
aVbase/database/database/topic_s
p109
aVuser/robert/roman_empire/roman_dynasty/emperors
p110
aVfilm/producer/film
p111
aVconferences/conference_sponsor/conferences
p112
aVvisual_art/visual_art_form/artists
p113
aVbase/givennames/given_name/language
p114
aVcomputer/software_developer/software
p115
aVbook/book_edition/binding
p116
aVmeteorology/cyclone_affected_area/cyclones
p117
aVbase/bioventurist/product/stage_of_development
p118
aVbase/services/doctor/hospital_affiliations
p119
aVsports/multi_event_tournament/sports
p120
aVinterests/hobby/people_with_this_hobby
p121
aVtime/calendar/days_of_year
p122
aVmetropolitan_transit/transit_line/stops
p123
aVdigicams/camera_storage_type/compatible_cameras
p124
aVmedicine/drug_physiologic_effect/drugs_with_this_physiologic_effect
p125
aVfilm/film_festival/location
p126
aVcomputer/software/license
p127
aVbase/saturdaynightlive/snl_cast_member/highest_status_achieved
p128
aVtv/tv_program/genre
p129
aVpeople/family/members
p130
aVdigicams/digital_camera_manufacturer/cameras
p131
aVbook/translator/works_translated
p132
aVgovernment/government_agency/jurisdiction
p133
aVvisual_art/art_subject/artwork_on_the_subject
p134
aVeducation/athletics_brand/teams
p135
aVcomputer/computer_peripheral_class/instances
p136
aVbase/americancivilwar/campaign/theater
p137
aVgovernment/government_service/providing_agency
p138
aVbase/gadgets/gadget/category
p139
aVpeople/deceased_person/cause_of_death
p140
aVbase/coinsdaily/coin_type/issuer
p141
aVsports/tournament_event/tournaments_contested_in
p142
aVbase/thoroughbredracing/thoroughbred_racehorse/grand_foal_if_horse_is_damsire
p143
aVsymbols/name_source/namesakes
p144
aVsports/sports_team_location/teams
p145
aVcvg/computer_videogame/versions
p146
aVlanguage/language_family/languages
p147
aVcvg/cvg_publisher/game_versions_published
p148
aVcvg/game_version/game
p149
aVbase/adultentertainment/adult_entertainer/specialises_in_fetishes
p150
aVbase/jewlib/parent_institution/judaica_owning_units
p151
aVbase/militaryinfiction/military_unit_size_designation_in_fiction/units_of_this_size_in_fiction
p152
aVbase/ikariam/ikariam_research_category/researches
p153
aVuser/robert/military/military_person/allegiance
p154
aVbaseball/baseball_division/teams
p155
aVuser/alexander/misc/murdered_person/murdered_by
p156
aVevent/disaster_victim/killed_in_disaster
p157
aVuser/thalendar/default_domain/roleplaying_game/genre
p158
aVpeople/person/place_of_birth
p159
aVbase/morelaw/canadian_judge/court
p160
aVbase/landcover/land_cover_class/spatial_extent
p161
aVsoccer/football_player/position_s
p162
aVbase/services/bank_services/banks
p163
aVtv/tv_writer/tv_segments_written
p164
aVmusic/voice/singers
p165
aVfood/ingredient/more_general_ingredient
p166
aVvisual_art/art_period_movement/associated_artists
p167
aVbase/argumentmaps/innovator/original_ideas
p168
aVaviation/airport/serves
p169
aVcvg/game_version/platform
p170
aVcomic_books/comic_book_character/created_by
p171
aVbook/written_work/school_or_movement
p172
aVbase/ecology/type_of_ecosystem/ecosystems_of_this_type
p173
aVinterests/collection_category/sub_categories
p174
aVtv/tv_program/episodes
p175
aVastronomy/celestial_object/category
p176
aVolympics/olympic_games/events
p177
aVengineering/engine_category/engines
p178
aVreligion/religion/notable_figures
p179
aVtime/time_zone/locations_in_this_time_zone
p180
aVbasketball/basketball_team/head_coach
p181
aVmetropolitan_transit/transit_service_type/transit_systems
p182
aVmetropolitan_transit/transit_line/transit_system
p183
aVbase/ballet/ballet_company/founder
p184
aVlocation/in_state/administrative_capital
p185
aVeducation/fraternity_sorority/colleges_and_universities
p186
aVwine/wine_region/wines
p187
aVbase/cars_refactor/model/make
p188
aVinternet/blog/blogger
p189
aVfilm/film/story_by
p190
aVchemistry/chemical_element/chemical_series
p191
aVbook/literary_series/works_in_this_series
p192
aVmedicine/disease/notable_people_with_this_condition
p193
aVpipeline/task/status
p194
aVtransportation/road/major_cities
p195
aVmusic/artist/album
p196
aVice_hockey/hockey_player/hockey_position
p197
aVbook/isbn/book_editions
p198
aVpeople/person/parents
p199
aVtime/event/locations
p200
aVpeople/ethnicity/languages_spoken
p201
aVbook/publishing_company/books_published
p202
aVbase/usnationalparks/us_national_park/closest_airports
p203
aVbase/usnationalparks/us_national_park/classification
p204
aVbase/fashionmodels/hair_color/fashion_models_with_this_hair_color
p205
aVmedicine/vaccine/infectious_disease
p206
aVfictional_universe/fictional_character/organizations
p207
aVfictional_universe/fictional_organization_type/organizations
p208
aVexhibitions/exhibition_subject/exhibitions_created_about_this_subject
p209
aVbiology/organism_classification/organisms_of_this_type
p210
aVbase/schemastaging/non_profit_classification/organizations
p211
aVsports/sports_position/sport
p212
aVarchitecture/structure/architectural_style
p213
aVbase/classiccars/classic_car/body_styles_produced
p214
aVorganization/organization/organization_type
p215
aVtype/content/language
p216
aVbaseball/baseball_player/bats
p217
aVbase/thoroughbredracing/thoroughbred_racehorse/damsire
p218
aVcomputer/software_license/versions
p219
aVmusic/guitar/brand
p220
aVbasketball/basketball_conference/divisions
p221
aVvisual_art/visual_art_medium/artworks
p222
aVbase/usnris/nris_listing/significance_level
p223
aVvisual_art/visual_artist/artworks
p224
aVuser/micahsaul/advertising/ad_campaign/type_of_campaign
p225
aVmusic/composer/compositions
p226
aVastronomy/extraterrestrial_location/on_celestial_object
p227
aVuser/micahsaul/advertising/advertised_thing/ad_campaigns
p228
aVbase/livemusic/concert_venue/concerts
p229
aVbroadcast/radio_station/format
p230
aVbase/skateboarding/skateboarding_tricks/associated_skateboarder
p231
aVboats/ship/ship_class
p232
aVfictional_universe/character_species/characters_of_this_species
p233
aVbase/switzerland/ch_canton/capital
p234
aVbase/politicalconventions/political_convention/presidential_nominee
p235
aVuser/tsegaran/computer/algorithm/family
p236
aVgeography/mountain_pass/range
p237
aVbase/charities/geographic_scope/charities
p238
aVmedicine/drug/drug_class
p239
aVbook/newspaper/owner
p240
aVreligion/religion/branched_into
p241
aVeducation/educational_institution/parent_institution
p242
aVpeople/person/profession
p243
aVtime/holiday_category/holidays
p244
aVfictional_universe/character_powers/characters_with_this_ability
p245
aVmedia_common/quotation_subject/quotations_about_this_subject
p246
aVmusic/composition/lyricist
p247
aVbase/dancingwiththestars/professional_performer/celebrity_dance_partner
p248
aVfilm/editor/film
p249
aVreligion/religion/practices
p250
aVuser/jamie/food/food_additive/category
p251
aVbase/greencars/electric_hybrid_car/ice_fuel
p252
aVbase/eating/diets/people_who_follow_this_diet
p253
aVaviation/airliner_accident/aircraft_type
p254
aVbase/pethealth/pet_disease_or_medical_condition/risk_factors
p255
aVcomic_books/comic_book_penciler/comic_covers_penciled
p256
aVuser/alexander/philosophy/philosopher/interests
p257
aVfictional_universe/fictional_character/appears_in_these_fictional_universes
p258
aVmetropolitan_transit/transit_system/transit_service_types
p259
aVroyalty/monarch/kingdom
p260
aVcomputer/computer/processor
p261
aVsports/sports_team/location
p262
aVuser/szaijan/fantasy_football/position/player
p263
aVbase/eventparticipants/known_participants/participated_in
p264
aVtime/day_of_year/holidays
p265
aVbase/crime/crime/victim_s
p266
aVcvg/video_game_soundtrack/video_game
p267
aVcvg/computer_game_distribution_system/games_distributed
p268
aVolympics/olympic_sport/events
p269
aVmedicine/drug_formulation/legal_status
p270
aVlocation/country/administrative_divisions
p271
aVlocation/location/partially_containedby
p272
aVcomputer/operating_system/parent_os
p273
aVamusement_parks/park/rides
p274
aVgovernment/election/office
p275
aVlanguage/conlang/created_by
p276
aVfictional_universe/fictional_character/education
p277
aVbase/events/festival_series/type_of_festival
p278
aVcommon/licensed_object/license
p279
aVmedia_common/media_genre/child_genres
p280
aVcomputer/programming_language/language_paradigms
p281
aVfilm/film/film_series
p282
aVarchitecture/structure/destroyed_by
p283
aVpeople/profession/specialization_of
p284
aVastronomy/near_earth_object_classification/near_earth_objects
p285
aVtype/type/instance
p286
aVuser/tsegaran/computer/algorithm_family/algorithm
p287
aVtransportation/bridge/body_of_water_spanned
p288
aVfreebase/valuenotation/is_reviewed
p289
aVgeography/river/mouth
p290
aVamusement_parks/ride/park
p291
aVamusement_parks/amusement_park_area/rides
p292
aVgeography/river/cities
p293
aVbase/petbreeds/dog_temperament/dog_breeds
p294
aVmedicine/symptom/symptom_of
p295
aVmusic/instrument/instrumentalists
p296
aVbase/militaryinfiction/military_conflict_in_fiction/military_characters_involved
p297
aVaward/competitor/competitions_won
p298
aVpeople/person/gender
p299
aVsports/sports_championship/events
p300
aVaviation/aircraft_type/aircraft_of_this_type
p301
aVtheater/theater_production/play
p302
aVevent/disaster/survivors
p303
aVbase/breakfast/breakfast_cereal_theme/brands
p304
aVmusic/release/album
p305
aVpeople/profession/people_with_this_profession
p306
aVuser/mt/default_domain/metabolite/biofunction
p307
aVbase/meedan/arabic_language_media_source/city
p308
aVbase/webvideo/internet_video_creator/series_created
p309
aVuser/jonathanwlowe/location/city_limits/bounds_city
p310
aVbroadcast/genre/content
p311
aVarchitecture/museum/type_of_museum
p312
aVeducation/school/lowest_grade_taught
p313
aVbook/author/book_editions_published
p314
aVbase/reviews/review/reviewed_topic
p315
aVgeography/lake/lake_type
p316
aVfreebase/user_profile/favorite_films
p317
aVice_hockey/hockey_position/players
p318
aVbook/newspaper_owner/newspapers_owned
p319
aVbasketball/basketball_position/players
p320
aVorganization/organization_scope/organizations_with_this_scope
p321
aVeducation/school_newspaper/school
p322
aVtv/tv_series_episode/season
p323
aVbase/folklore/mythical_creature_location/mythical_creature_s
p324
aVlocation/hud_section_8_area/county
p325
aVtype/user/usergroup
p326
aVbase/thoroughbredracing/thoroughbred_racehorse/foal_if_this_horse_is_sire
p327
aVbase/ancientegypt/pharaoh/successor
p328
aVorganization/organization/locations
p329
aVtravel/travel_destination/accommodation
p330
aVsports/sports_team/member_of
p331
aVcomputer/programming_language_designer/languages_designed
p332
aVfictional_universe/fictional_character/gender
p333
aVbase/pethealth/pet_disease_or_medical_condition/pets_affected
p334
aVmedicine/disease/causes
p335
aVmusic/release/region
p336
aVexhibitions/exhibition/subjects
p337
aVbase/dancingwiththestars/professional_performer/seasons_on_dwts
p338
aVbiology/animal_breed/place_of_origin
p339
aVuser/patrick/default_domain/tagged_topic/tags
p340
aVmusic/artist/concert_tours
p341
aVbase/schemastaging/non_profit_extra/classification
p342
aVastronomy/constellation/contains
p343
aVeducation/school_category/schools_of_this_kind
p344
aVfictional_universe/fictional_character/place_of_birth
p345
aVuser/micahsaul/advertising/advertiser/ad_campaigns
p346
aVfood/cheese_milk_source/cheeses
p347
aVmedicine/drug_brand/active_ingredients
p348
aVfilm/film/country
p349
aVcomic_books/comic_book_series/genre
p350
aVbook/written_work/author
p351
aVmedicine/disease/risk_factors
p352
aVgeography/lake_type/lakes_of_this_type
p353
aVgeography/lake/outflow
p354
aVmusic/recording/song
p355
aVmusic/composition/form
p356
aVsports/defunct_sports_team/later_known_as
p357
aVuser/robert/us_congress/house_committee/current_members
p358
aVtv/tv_series_episode/next_episode
p359
aVcvg/cvg_platform/games_on_this_platform
p360
aVgeography/island/body_of_water
p361
aVspaceflight/space_mission/astronauts
p362
aVbase/fictionaluniverse/deceased_fictional_character/place_of_death
p363
aVuser/robert/us_congress/us_representative/congressional_caucus_memberships
p364
aVwine/wine/country
p365
aVbase/localfood/farm/produce
p366
aVbusiness/defunct_company/reason_for_ceasing_operations
p367
aVbroadcast/broadcast/distributor
p368
aVfood/dish/type_of_dish1
p369
aVuser/micahsaul/advertising/ad/art_director
p370
aVbase/events/type_of_festival/recurring_festivals_of_this_type
p371
aVfictional_universe/fictional_character/ethnicity
p372
aVcomputer/programming_language/influenced_by
p373
aVbook/book_subject/musical_compositions_about_this_topic
p374
aVgovernment/government_office_or_title/jurisdiction
p375
aVbase/americancomedy/double_act/comic
p376
aVvisual_art/artwork/art_subject
p377
aVmusic/soundtrack/film
p378
aVaward/competition/instance_of_recurring_competition
p379
aVbiology/chromosome/gene
p380
aVbiology/domesticated_animal/breeds
p381
aVamusement_parks/ride/area
p382
aVbase/folklore/named_mythical_creature/type_of_mythical_creature
p383
aVbase/cycleroute/cycle_route/network
p384
aVfilm/content_rating/film
p385
aVmedicine/drug/legal_status
p386
aVmusic/recording/featured_artists
p387
aVbase/aareas/schema/administrative_area_type/subdivides_place
p388
aVcomputer/file_format/read_by
p389
aVdigicams/digital_camera/compressed_formats
p390
aVastronomy/type_of_planetographic_feature/planetographic_features_of_this_type
p391
aVmusic/artist/track
p392
aVtime/event/people_involved
p393
aVfood/type_of_dish/dishes
p394
aVaviation/airliner_accident/operator
p395
aVevent/disaster_survivor/survived_disasters
p396
aVorganization/organization_type/organizations_of_this_type
p397
aVpeople/ethnicity/included_in_group
p398
aVlocation/country/currency_formerly_used
p399
aVroyalty/royal_line/kingdom_s_ruled
p400
aVreligion/religion/sacred_sites
p401
aVdigicams/digital_camera/sensor_type
p402
aVtype/object/permission
p403
aVlocation/country/capital
p404
aVtheater/play/characters
p405
aVlocation/location/contains
p406
aVfilm/film/prequel
p407
aVdigicams/digital_camera/manufacturer
p408
aVtheater/theater_production/director
p409
aVbase/fashionmodels/fashion_model/hair_color
p410
aVbase/familyguy/family_guy_reference/episodes
p411
aVbase/saints/saint/venerated_in
p412
aVbook/book_edition/contributing_authors
p413
aVtransportation/bridge/locale
p414
aVarchitecture/structure/engineer
p415
aVlocation/location/time_zones
p416
aVmusic/release/format
p417
aVeducation/fraternity_sorority/colors
p418
aVbase/ndbcd/buoy/type_of_buoy
p419
aVbase/cars_refactor/make/model_s
p420
aVmedia_common/netflix_title/netflix_genres
p421
aVbase/trails/trail/activity
p422
aVamerican_football/football_game/away_team
p423
aVpeople/family/country
p424
aVtheater/theater_production/choreographer
p425
aVbroadcast/radio_format/stations
p426
aVlanguage/human_language/countries_spoken_in
p427
aVgovernment/primary_election/party
p428
aVmusic/record_label/artist
p429
aVbase/petbreeds/chicken_breed/primary_use
p430
aVbase/activism/activism_issue/activist_organizations
p431
aVuser/mt/default_domain/metabolite/tissue_location
p432
aVtravel/hotel/operated_by
p433
aVbase/services/bank_branch/banking_services_provided
p434
aVbase/yupgrade/user/topics
p435
aVbase/digitalcameras/digital_camera/lens_mount
p436
aVuser/mikeshwe/hairstyles/hairstyle/celebrities
p437
aVbase/schemastaging/food_extra/narrower
p438
aVtv/tv_program/subjects
p439
aVbase/fight/crime_type/crimes_of_this_type
p440
aVtv/tv_series_episode/subjects
p441
aVsoccer/football_match/teams
p442
aVautomotive/automotive_class/examples
p443
aVbase/litcentral/focal_location/land_manager
p444
aVfilm/film/film_format
p445
aVmedicine/symptom/side_effect_of
p446
aVbase/usnationalparks/us_national_park/state
p447
aVopera/opera_production/performed_at
p448
aVbase/animemanga/anime_manga_franchise/sub_franchise
p449
aVbase/roses/roses/country_of_origin
p450
aVbase/musicmanager/music_manager/managed
p451
aVarchitecture/lighthouse_construction_material/used_on_lighthouse
p452
aVinternet/top_level_domain_type/domains
p453
aVbase/bowlgames/bowl_game/stadium
p454
aVpeople/cause_of_death/includes_causes_of_death
p455
aVbase/pethealth/pet_disease_or_medical_condition/treatments
p456
aVfood/diet/followers
p457
aVuser/jamie/food/food_additive_category/categorizes
p458
aVvisual_art/visual_artist/associated_periods_or_movements
p459
aVcommon/topic/image
p460
aVlaw/court/superior_courts
p461
aVbase/biblioness/bibs_location/state
p462
aVbase/argumentmaps/event_of_disputed_occurance/people_who_think_it_didn_t_happen
p463
aVbase/ecology/food_web_member/belongs_to_ecosystem_s
p464
aVfilm/film/film_set_decoration_by
p465
aVautomotive/company/make_s
p466
aVbase/rugby/type_of_rugby/players_of_this_type_of_rugby
p467
aVbase/ballet/ballet/choreographer
p468
aVbase/reviews/review/mentions
p469
aVfilm/film/film_casting_director
p470
aVbase/givennames/given_name/gender
p471
aVinternet/protocol/api
p472
aVbase/mathematics1/mathematical_concept/generalizations
p473
aVbook/written_work/part_of_series
p474
aVastronomy/astronomer/astronomical_objects_discovered
p475
aVwine/wine/wine_type
p476
aVmusic/composition/recorded_as_album
p477
aVbase/petbreeds/dog_breed/family_friendly
p478
aVboats/ship_type/ship_class
p479
aVvisual_art/artwork/artist
p480
aVfilm/film/produced_by
p481
aVbook/author/works_edited
p482
aVbook/author/works_written
p483
aVuser/mt/default_domain/metabolite/biofluid_location
p484
aVbroadcast/content/broadcast
p485
aVbase/animemanga/anime_studio/anime_titles
p486
aVgeography/mountain/listings
p487
aVmedicine/drug_ingredient/more_general_ingredient
p488
aVbase/skosbase/skos_concept/broader_topic
p489
aVbase/rosetta/languoid/local_name
p490
aVexhibitions/exhibit/exhibitions_displayed_in
p491
aVastronomy/orbital_relationship/orbited_by
p492
aVbook/written_work/subjects
p493
aVmedicine/manufactured_drug_form/color
p494
aVtv/tv_subject/tv_programs
p495
aVvisual_art/artwork/period_or_movement
p496
aVmusic/lyricist/lyrics_written
p497
aVtheater/theater_director/plays_directed
p498
aVarchitecture/architecture_firm/projects
p499
aVautomotive/model/automotive_class
p500
aVmedicine/drug_formulation/active_ingredients
p501
aVbiology/animal_breed/examples
p502
aVbroadcast/content/genre
p503
aVmedicine/icd_9_cm_classification/parent_classification
p504
aVbusiness/shopping_center/owner
p505
aVbase/fight/labour_dispute/employer
p506
aVamusement_parks/ride/ride_type
p507
aVmusic/album/artist
p508
aVbook/book_edition/book
p509
aVcvg/computer_videogame/influenced
p510
aVmusic/composition/subjects
p511
aVbroadcast/tv_station_owner/tv_stations
p512
aVcomic_books/comic_book_publisher/comic_book_series_published
p513
aVamerican_football/football_player/position_s
p514
aVbase/fashionmodels/fashion_model/eye_color
p515
aVcomic_books/comic_book_fictional_universe/characters_primarily_appearing_in_this_universe
p516
aVtheater/theater_character/plays_appears_in
p517
aVsports/sports_team/arena_stadium
p518
aVbase/thoroughbredracing/thoroughbred_racehorse_color/horses_of_this_color
p519
aVbook/illustrator/books_illustrated
p520
aVbase/skosbase/vocabulary_equivalent_topic/broader_concept
p521
aVcvg/game_series/games_in_series
p522
aVaviation/aircraft_model/engine_type
p523
aVfilm/film/featured_film_locations
p524
aVtime/holiday/featured_in_religions
p525
aVbase/aareas/schema/administrative_area/pertinent_type
p526
aVmusic/composition/recordings
p527
aVuser/sandos/research/research_project/research_topic
p528
aVtv/tv_subject/tv_episodes
p529
aVbusiness/industry/companies
p530
aVuser/robert/roman_empire/roman_emperor/successor
p531
aVgovernment/government_agency/government
p532
aVpeople/deceased_person/place_of_cremation
p533
aVbase/bioventurist/product/developed_by
p534
aVeducation/fraternity_sorority/accepted_genders
p535
aVmusic/release/engineers
p536
aVmedicine/disease/includes_diseases
p537
aVbase/saints/feast_day/saint
p538
aVbook/journal/discipline
p539
aVvisual_art/artwork/support
p540
aVreligion/place_of_worship/type_of_place_of_worship
p541
aVcvg/computer_videogame/platforms
p542
aVfood/candy_bar/manufacturer
p543
aVmedia_common/literary_genre/books_in_this_genre
p544
aVbase/godparents/godchild/godparents
p545
aVbase/aareas/coding_scheme/types
p546
aVwine/wine/color
p547
aVbase/morelaw/ceasefire/w
p548
aVgeology/rock_type/parent_rock_type
p549
aVsports/sports_team/colors
p550
aVmartial_arts/martial_art/well_known_practitioner
p551
aVcvg/computer_videogame/processors_supported
p552
aVfilm/film/executive_produced_by
p553
aVbase/animemanga/anime_manga_franchise/genre
p554
aVmusic/recording/engineer
p555
aVfictional_universe/fictional_setting/characters_that_have_lived_here
p556
aVlocation/place_with_neighborhoods/neighborhoods
p557
aVlocation/location/people_born_here
p558
aVmusic/composition/composer
p559
aVdining/cuisine/dishes
p560
aVmusic/release/track_list
p561
aVdigicams/digital_camera/uncompressed_formats
p562
aVmusic/artist/origin
p563
aVbase/realitytv/reality_tv_contestant/season
p564
aVuser/alexander/philosophy/idea/philosopher
p565
aVmedicine/drug_formulation/drug_category
p566
aVspaceflight/spacecraft/manufacturer
p567
aVbasketball/basketball_division/teams
p568
aVeducation/academic/advisors
p569
aVeducation/academic/research_areas
p570
aVmedicine/drug/active_moieties
p571
aVdigicams/digital_camera/iso_setting
p572
aVfilm/film/sequel
p573
aVbusiness/company_type/companies_of_this_type
p574
aVfilm/film/locations
p575
aVfictional_universe/fictional_universe/characters
p576
aVfictional_universe/fictional_character/has_possessed
p577
aVbook/author/school_or_movement
p578
aVpeople/cause_of_death/parent_cause_of_death
p579
aVbase/bioventurist/science_or_technology_company/develops_treatments_for_disease
p580
aVsports/sports_team_owner/teams_owned
p581
aVbase/rosetta/languoid/parent
p582
aVbaseball/baseball_team/current_manager
p583
aVmusic/guitarist/guitars_played
p584
aVbook/written_work/editor
p585
aVeducation/school/school_district
p586
aVvisual_art/visual_artist/art_forms
p587
aVeducation/school_district/lowest_grade_taught
p588
aVtv/multipart_tv_episode/episodes
p589
aVbase/petbreeds/cat_breed/temperament
p590
aVbase/animemanga/manga_title/characters
p591
aVbase/activism/activist/area_of_activism
p592
aVaviation/aircraft_manufacturer/aircraft_models_made
p593
aVinterests/collectable_item/collection_category
p594
aVbase/americancomedy/comedian/performed_in_venues
p595
aVmedicine/drug/mechanism_of_action
p596
aVopera/opera/librettist
p597
aVbook/magazine/genre
p598
aVmusic/album/album_content_type
p599
aVbase/sports/sports_draft_pick/draft
p600
aVmedia_common/literary_genre/stories_in_this_genre
p601
aVtv/tv_rating/tv_episodes
p602
aVorganization/club_interest/clubs
p603
aVcricket/cricket_player/batting_style
p604
aVaward/competition/type_of_competition
p605
aVmedicine/condition_prevention_factors/conditions_this_may_prevent
p606
aVamusement_parks/amusement_park_area/parks
p607
aVfilm/film/film_festivals
p608
aVpeople/deceased_person/place_of_burial
p609
aVbase/folklore/mythology/mythical_creatures
p610
aVlanguage/human_language/region
p611
aVbusiness/industry/parent_industry
p612
aVtv/tv_director/episodes_directed
p613
aVmetropolitan_transit/transit_stop/transit_lines
p614
aVbase/aareas/schema/administrative_area/administrative_area_type
p615
aVbase/peleton/road_bicycle_racing_event/road_cycling_race_this_is_an_event_of
p616
aVtime/event/includes_event
p617
aVolympics/olympic_sport/olympic_games_contested
p618
aVsports/sport/leagues
p619
aVlanguage/language_family/sub_families
p620
aVtv/tv_program/spin_offs
p621
aVcvg/computer_videogame/uses_game_engine
p622
aVsports/boxer/weight_division
p623
aVfinance/stock_exchange/primary_regions
p624
aVuser/robert/military/military_person/participated_in_conflicts
p625
aVcvg/game_version/regions
p626
aVbase/services/local_business/payment_accepted
p627
aVtv/tv_program/filming_locations
p628
aVspaceflight/satellite/launch_vehicle
p629
aVbroadcast/producer/location
p630
aVlocation/location/nearby_airports
p631
aVbase/militaryinfiction/location_in_fiction/languages
p632
aVamusement_parks/ride_theme/rides
p633
aVbase/aareas/schema/administrative_area/administrative_parent
p634
aVbase/skosbase/skos_concept/narrower_topic
p635
aVzoos/zoo/exhibits
p636
aVmetropolitan_transit/transit_stop/terminus_for_lines
p637
aVmedia_common/adaptation/adapted_from
p638
aVaviation/airliner_accident/flight_origin
p639
aVfilm/film_art_director/films_art_directed
p640
aVcomic_books/comic_book_genre/comic_book_series_in_this_genre
p641
aVmusic/composition/place_composed
p642
aVmedicine/medical_treatment/trials
p643
aVbroadcast/tv_station/owner
p644
aVbaseball/baseball_team/league
p645
aVbase/yalebase/residential_college/alumni
p646
aVperiodicals/newspaper_circulation_area/newspapers
p647
aVeducation/educational_institution/newspaper
p648
aVaviation/airline/accidents
p649
aVbase/thoroughbredracing/thoroughbred_racehorse_sex/horses_of_this_sex
p650
aVbase/fires/fire_cause/fires_caused_this_way
p651
aVbase/nascar/nascar_racing_organization/drivers
p652
aVgeography/glacier/terminus
p653
aVbase/onephylogeny/type_of_thing/included_in
p654
aVsports/sports_facility/teams
p655
aVcomputer/software/software_genre
p656
aVfictional_universe/character_gender/characters_of_this_gender
p657
aVuser/micahsaul/advertising/ad_campaign/advertiser
p658
aVbase/movietheatres/movie_theatre/type_of_movietheatre
p659
aVgeography/mountain_type/mountains_of_this_type
p660
aVcvg/computer_game_mod/game_modded
p661
aVbusiness/industry/child_industry
p662
aVreligion/belief/belief_of
p663
aVfilm/film/primary_language
p664
aVuser/carmenmfenn1/default_domain/cityscape/museums
p665
aVbook/author/contributing_author_to
p666
aVbase/animemanga/anime_manga_genre/anime_manga_franchises
p667
aVmusic/producer/tracks_produced
p668
aVtv/tv_program/country_of_origin
p669
aVlocation/us_state/capital
p670
aVorganization/organization_sector/organizations_in_this_sector
p671
aVfilm/film_costumer_designer/costume_design_for_film
p672
aVbase/webvideo/internet_video_genre/series
p673
aVinterests/hobbyist/hobbies
p674
aVuser/ktrueman/default_domain/international_organization/member_states
p675
aVastronomy/star/constellation
p676
aVbase/argumentmaps/original_idea/innovator
p677
aVmetropolitan_transit/transit_vehicle/transit_lines
p678
aVbroadcast/radio_station/serves_area
p679
aVfictional_universe/fictional_universe/works_set_here
p680
aVorganization/organization_founder/organizations_founded
p681
aVbase/horsefacts/event_class/riding_style
p682
aVaviation/aircraft_model/designed_by
p683
aVamusement_parks/roller_coaster/propulsion
p684
aVcvg/computer_game_subject/games
p685
aVmilitary/military_unit/armed_force
p686
aVbase/pinball/pinball_machine/designer
p687
aVbook/periodical/language
p688
aVuser/radiusrs/default_domain/astrology/related_topics
p689
aVcommon/image/appears_in_topic_gallery
p690
aVvisual_art/art_period_movement/associated_artworks
p691
aVsoccer/football_match/referee
p692
aVmilitary/military_unit_size/units_of_this_type
p693
aVcvg/computer_videogame/developer
p694
aVuser/alexander/philosophy/school_of_thought/philosophers
p695
aVsports/sports_championship_event/runner_up
p696
aVreligion/religion/places_of_worship
p697
aVarchitecture/type_of_museum/museums
p698
aVspaceflight/space_program/sponsor
p699
aVbase/thoroughbredracing/thoroughbred_racehorse/sex
p700
aVcomputer/computer_manufacturer_brand/computer_models
p701
aVcomic_books/comic_book_story/characters
p702
aVopera/opera_house/productions
p703
aVlocation/citytown/postal_codes
p704
aVcomic_books/comic_book_series/publisher
p705
aVmedicine/infectious_disease/transmission
p706
aVgeography/lake/basin_countries
p707
aVbroadcast/broadcast/content
p708
aVtravel/tourist_attraction/near_travel_destination
p709
aVuser/kurt/default_domain/thoughtranker/revered_by
p710
aVfilm/director/film
p711
aVarchitecture/building_function/buildings
p712
aVbase/pethealth/pet_disease_or_medical_condition/diagnosis
p713
aVfilm/film_collection/films_in_collection
p714
aVaviation/airport/focus_city_for
p715
aVfictional_universe/fictional_character/powers_or_abilities
p716
aVfictional_universe/fictional_setting/setting_type
p717
aVbase/schemastaging/fish/found_in
p718
aVmedicine/risk_factor/diseases
p719
aVbase/paranormal/person_with_alleged_paranormal_powers/type_of_paranormal_ability
p720
aVfood/dish/cuisine
p721
aVbase/infrastructure/power_station/fuel_type
p722
aVmusic/genre/albums
p723
aVcvg/computer_videogame/cvg_genre
p724
aVmedicine/disease/medical_specialties
p725
aVbook/poem_character/appears_in_poems
p726
aVaviation/aircraft_model/manufacturer
p727
aVbase/coinsdaily/coin_type/parent_coin_type
p728
aVfilm/content_rating/country
p729
aVmeasurement_unit/dimension/instruments
p730
aVdigicams/camera_iso/cameras
p731
aVbase/services/spa/cosmetic_treatments
p732
aVbase/rugby/rugby_position/rugby_players_of_this_position
p733
aVcommon/topic/subjects
p734
aVcomic_books/comic_book_series/created_by
p735
aVlanguage/language_writing_system/languages
p736
aVbase/crime/crime/crime_type
p737
aVvisual_art/visual_art_support/artworks
p738
aVastronomy/celestial_object/locations
p739
aVbase/crime/criminal_trial/criminal_defence_attorney
p740
aVbase/bioventurist/science_or_technology_company/products
p741
aVaward/award/presented_by
p742
aVaward/award_presenting_organization/awards_presented
p743
aVmedia_common/media_genre/parent_genre
p744
aVtype/type/properties
p745
aVfictional_universe/fictional_character/children
p746
aVfictional_universe/fictional_character/parents
p747
aVarchitecture/architectural_style/examples
p748
aVgeography/mountain_range/passes
p749
aVamerican_football/football_division/teams
p750
aVbase/services/retail_location/retail_location_clientele
p751
aVinternet/top_level_domain/domain_type
p752
aVmusic/instrument/variation
p753
aVreligion/religion/texts
p754
aVeducation/field_of_study/subdiscipline_of
p755
aVbase/fight/crime_type/victims_of_this_crime_type
p756
aVpeople/ethnicity/includes_groups
p757
aVfilm/film/film_production_design_by
p758
aVmedicine/manufactured_drug_form/manufacturer
p759
aVbase/petbreeds/dog_breed/color
p760
aVmusic/album/primary_release
p761
aVbase/terrorism/terrorist/involved_in_attacks
p762
aVpeople/person/nationality
p763
aVmusic/recording/producer
p764
aVaviation/airport/hub_for
p765
aVbase/pethealth/pet_disease_or_medical_condition/symptoms
p766
aVsports/sports_team/championships
p767
aVtv/tv_series_episode/director
p768
aVamusement_parks/roller_coaster_propulsion_system/roller_coasters
p769
aVuser/jg/default_domain/olympic_games/sports
p770
aVastronomy/astronomical_discovery/discovery_organization
p771
aVtv/tv_genre/programs
p772
aVlaw/legal_case/court
p773
aVtype/content/uploaded_by
p774
aVlanguage/language_family/member_of_language_families
p775
aVspaceflight/space_program/missions
p776
aVvisual_art/visual_art_form/artworks
p777
aVmedicine/hospital/medical_specialties
p778
aVbase/cocktails/cocktail/standard_drinkware
p779
aVdigicams/camera_compressed_format/cameras
p780
aVaviation/aircraft_designer/aircraft_models_designed
p781
aVbase/caveart/cave/galleries
p782
aVbusiness/business_operation/industry
p783
aVcomputer/computing_platform/file_formats_supported
p784
aVvisual_art/artwork/art_form
p785
aVfilm/cinematographer/film
p786
aVbase/truereligion/style/fit
p787
aVbase/adultentertainment/adult_media/sexual_fetishes_portrayed
p788
aVmedicine/manufactured_drug_form/available_in
p789
aVtype/object/type
p790
aVbase/rosetta/local_name/languoid
p791
aVfictional_universe/fictional_character/occupation
p792
aVinternet/website_owner/websites_owned
p793
aVmusic/album/compositions
p794
aVfictional_universe/character_species/found_in_fictional_universe
p795
aVtime/event/instance_of_recurring_event
p796
aVbase/eating/diets/avoids_food_type
p797
aVdining/cuisine/region_of_origin
p798
aVuser/alexander/philosophy/philosopher/era
p799
aVsports/sports_championship_event/championship
p800
aVgovernment/government_agency/provides_service
p801
aVspaceflight/space_agency/astronauts
p802
aVmedicine/notable_person_with_medical_condition/condition
p803
aVaward/competition_type/competitions_of_this_type
p804
aVmusic/music_video/music_video_song
p805
aVbase/saturdaynightlive/snl_fiver_timer/type_of_five_timer
p806
aVuser/robert/mobile_phones/mobile_phone/carriers
p807
aVaward/award_category/disciplines_or_subjects
p808
aVcomputer/software/protocols_used
p809
aVlanguage/language_writing_system/type_of_writing
p810
aVeducation/grade_level/locations_used
p811
aVbase/activism/activism_issue/includes_issues
p812
aVfilm/film_festival/focus
p813
aVeducation/university/fraternities_and_sororities
p814
aVbiology/animal_breed/temperament
p815
aVbook/written_work/previous_in_series
p816
aVfood/candy_bar/sold_in
p817
aVastronomy/asteroid_group/asteroid_group_members
p818
aVmusic/album_content_type/albums
p819
aVmedicine/drug_formulation/dosage_form
p820
aVcomputer/software_genre/software_in_genre
p821
aVpeople/chinese_ethnic_group/autonomous_regions
p822
aVmusic/release/label
p823
aVtv/tv_theme_song/theme_song_for
p824
aVastronomy/astronomical_observatory/discoveries
p825
aVinternet/blog/focus
p826
aVlaw/court/legal_cases
p827
aVreligion/religious_text/religious_text_of
p828
aVbase/banking/investment_scheme/included_in
p829
aVuser/movgp0/default_domain/measurement_system/derived_units
p830
aVbase/monster/monster_species/monstrous_subspecies
p831
aVeducation/educational_institution/campuses
p832
aVchemistry/element_discoverer/discovered
p833
aVuser/chaswarner/default_domain/file_format/read_by
p834
aVbiology/organism/organism_type
p835
aVbase/icons/icon/icon_genre
p836
aVbase/thoroughbredracing/thoroughbred_racehorse/country
p837
aVfictional_universe/fictional_setting/works_set_here
p838
aVcvg/computer_game_engine/used_for_computer_games
p839
aVreligion/religion/deities
p840
aVuser/mt/default_domain/chemical_species/chemicals
p841
aVbiology/organism_classification/rank
p842
aVtravel/hotel/operating_brand
p843
aVamusement_parks/roller_coaster_material/roller_coasters
p844
aVbroadcast/artist/content
p845
aVbase/americancomedy/impersonated_celebrity/impersonated_by
p846
aVbase/process/process/component_stages
p847
aVmusic/group_member/artists_supported
p848
aVbase/pethealth/treatment/used_to_treat
p849
aVmusic/artist/genre
p850
aVcommon/topic/subject_of
p851
aVcvg/computer_videogame/gameplay_modes
p852
aVinternet/website/owner
p853
aVbase/fictionaluniverse/deceased_fictional_character/cause_of_death
p854
aVfictional_universe/fictional_object/featured_in_fictional_universe
p855
aVmedicine/drug_mechanism_of_action/drugs_with_this_mechanism_of_action
p856
aVmusic/recording/artist
p857
aVaviation/airport/airport_type
p858
aVmedia_common/quotation/author
p859
aVuser/micahsaul/advertising/art_director/ads
p860
aVtravel/travel_destination/tourist_attractions
p861
aVbasketball/basketball_team/division
p862
aVbase/argumentmaps/thinker/thinks_this_doesn_t_exist
p863
aVspaceflight/space_mission/space_program
p864
aVinterests/collection_category/parent_category
p865
aVinfluence/influence_node/influenced
p866
aVuser/fluteflute/default_domain/radio_program/country_of_origin
p867
aVuser/ktrueman/default_domain/governing_body/member_organizations
p868
aVaviation/airliner_accident/accident_type
p869
aVtheater/theater_choreographer/plays_choreographed
p870
aVeducation/educational_institution_campus/educational_institution
p871
aVinfluence/influence_node/influenced_by
p872
aVfood/cheese/country_of_origin
p873
aVbase/conservationaction/lead_agency_or_organization/program_s
p874
aVbase/crime/crime_victim/crime_type
p875
aVbase/americancivilwar/battle/military_units_involved_in_this_conflict
p876
aVbook/book_edition/language
p877
aVcvg/cvg_platform/games
p878
aVreligion/place_of_worship/religion
p879
aVolympics/olympic_host_city/olympics_hosted
p880
aVbiology/gene/chromosome
p881
aVmilitary/military_unit_place_of_origin/military_units
p882
aVlocation/administrative_division/second_level_division_of
p883
aVtravel/accommodation_type/accommodation_of_this_type
p884
aVuser/lindenb/default_domain/scientist/known_for
p885
aVfilm/actor/film
p886
aVbasketball/basketball_conference/teams
p887
aVmartial_arts/martial_artist/martial_art
p888
aVlaw/judge/cases
p889
aVmedicine/drug_dosage_form/formulations_available_in_this_form
p890
aVmeteorology/cloud/varieties
p891
aVlocation/de_rural_district/district_seat
p892
aVbase/retail/retailer/brand
p893
aVvisual_art/art_series/subject
p894
aVbook/periodical/subjects
p895
aVbase/obamabase/cabinet_position/potential_cabinet_members
p896
aVsports/boxer/stance
p897
aVbase/jewlib/research_collection/geographical_scope
p898
aVbase/rivalries/rivalry/rival
p899
aVlocation/location/containedby
p900
aVaviation/airline/alliance
p901
aVuser/jschell/default_domain/fictional_character/appeared_in
p902
aVmedicine/drug_brand/canonical_drug
p903
aVbroadcast/radio_station_owner/radio_stations
p904
aVmilitary/military_unit/unit_size
p905
aVuser/mt/default_domain/metabolite/associated_disorder
p906
aVlocation/location/primarily_containedby
p907
aVuser/robert/mobile_phones/mobile_phone/broadband_technology_supported
p908
aVmedicine/drug_ingredient/more_specific_ingredient
p909
aVbase/petbreeds/dog_breed/group
p910
aVfictional_universe/fictional_character/character_created_by
p911
aVbase/pethealth/pet_disease_risk_factor/pet_diseases_with_this_risk_factor
p912
aVpeople/person/quotations
p913
aVchemistry/chemical_classification/higher_classifications
p914
aVfictional_universe/fictional_character/rank
p915
aVfilm/film_production_designer/films_production_designed
p916
aVpeople/ethnicity/geographic_distribution
p917
aVlaw/constitution/amendments
p918
aVchemistry/chemical_series/elements
p919
aVbaseball/baseball_player/position_s
p920
aVbase/fictionaluniverse/fictional_clone/clone_of
p921
aVmedicine/drug/pregnancy_category
p922
aVeducation/field_of_study/subdisciplines
p923
aVcricket/cricket_bowler/technique
p924
aVengineering/engine_category/sub_categories
p925
aVmilitary/armed_force/military_combatant
p926
aVprotected_sites/governing_body_of_protected_sites/protected_sites_governed
p927
aVarchitecture/landscape_architect/landscape_project
p928
aVbook/book_character/appears_in_book
p929
aVwine/wine/appellation
p930
aVengineering/material/parent_material_class
p931
aVuser/robert/tallest/building/preceded_by
p932
aVbase/webvideo/internet_video/country_of_origin
p933
aVaviation/aircraft_line/models_in_line
p934
aVtheater/theatrical_lyricist/play_lyrics_written
p935
aVcvg/computer_videogame/soundtracks
p936
aVbase/argumentmaps/morally_disputed_activity/instance_of_abstract_moral_dispute
p937
aVgeography/body_of_water/bridges
p938
aVdining/chef/cuisines
p939
aVfilm/film_festival_event/films
p940
aVbase/thoroughbredracing/thoroughbred_racehorse/grand_foal_if_horse_is_grandsire
p941
aVdining/cuisine/ingredients
p942
aVbase/satelites/natural_satellite/orbited_body
p943
aVbase/schemastaging/food_extra/broader
p944
aVgeography/river/origin
p945
aVlocation/country/form_of_government
p946
aVbase/engineering/water_reservoir_use/dams_with_this_purpose
p947
aVmedicine/disease_cause/diseases
p948
aVcomputer/operating_system/developer
p949
aVgovernment/governmental_jurisdiction/agencies
p950
aVfood/drinking_establishment/drinking_establishment_type
p951
aVbase/engineering/mine/materials_extracted
p952
aVbook/translated_work/translations
p953
aVgeography/mountain_range/mountains
p954
aVbaseball/baseball_team/division
p955
aVbase/morelaw/legal_system/court
p956
aVreligion/religion/organizations
p957
aVtravel/accommodation_feature/accommodation_with_this_feature
p958
aVzoos/zoo/memberships
p959
aVastronomy/astronomical_survey_project_organization/celestial_objects_discovered
p960
aVfictional_universe/school_in_fiction/students_graduates
p961
aVfilm/writer/film
p962
aVbase/onephylogeny/type_of_thing/includes
p963
aVuser/chaswarner/default_domain/computer_program/reads
p964
aVmusic/engineer/releases_engineered
p965
aVbroadcast/content/language
p966
aVuser/thadguidry/default_domain/cereal_grain/breads_made_with
p967
aVfictional_universe/fictional_substance/fictional_object
p968
aVwine/wine_producer/wines
p969
aVbase/events/subject_of_festival/festivals_of_this_type
p970
aVbase/animemanga/anime_manga_creator/anime_manga_created
p971
aVcomic_strips/comic_strip_genre/comic_strips_of_this_genre
p972
aVbase/rosetta/languoid/child
p973
aVmusic/music_video/artist
p974
aVmedicine/disease/treatments
p975
aVbiology/organism_classification/higher_classification
p976
aVfilm/film_festival/individual_festivals
p977
aVbase/folklore/mythical_creature/mythology
p978
aVbase/aareas/schema/administrative_area_type/iso_country
p979
aVcomic_books/comic_book_writer/comic_books_written
p980
aVbase/musiteca/type_instrument/compositions
p981
aVmedicine/disease/parent_disease
p982
aVbase/wrestling/professional_wrestler/member_of_team
p983
aVmedicine/drug_administration_route/administered_drugs
p984
aVmeasurement_unit/dimension/units
p985
aVbase/greatgardens/garden_tool/kind_of_tool
p986
aVroyalty/royal_line/monarchs_from_this_line
p987
aVolympics/olympic_event/sport
p988
aVbusiness/consumer_product/brand
p989
aVbook/written_work/original_language
p990
aVmusic/producer/releases_produced
p991
aVbook/literary_series/author_s
p992
aVaviation/airport/operator
p993
aVsports/sports_official/sport
p994
aVvisual_art/artwork/art_genre
p995
aVsports/golf_club_access/golf_clubs
p996
aVbase/database/database_topic/database_s_for_this_topic
p997
aVconferences/conference_subject/series_of_conferences_about_this
p998
aVcvg/computer_videogame/subjects
p999
aVdining/cuisine/chefs
p1000
aVorganization/organization_partnership/members
p1001
aVbase/lawsandbox/legal_system/origin
p1002
aVaward/competition/competitors
p1003
aVastronomy/celestial_object_category/subcategory_of
p1004
aVuser/robert/mobile_phones/mobile_phone/input_interface
p1005
aVtv/tv_program/program_creator
p1006
aVmusic/single/versions
p1007
aVlanguage/human_language/writing_system
p1008
aVbase/obamabase/possible_cabinet_member/cabinet_position
p1009
aVfictional_universe/type_of_fictional_setting/settings
p1010
aVcvg/computer_game_engine/engine_family
p1011
aVgovernment/governmental_body/component_bodies
p1012
aVaviation/airline/hubs
p1013
aVarchitecture/architect/structures_designed
p1014
aVtheater/theater_company/plays_produced
p1015
aVmusic/composition/place_of_first_performance
p1016
aVfood/culinary_technique/recipes
p1017
aVtv/tv_program/spun_off_from
p1018
aVmusic/music_video_director/music_videos_directed
p1019
aVeducation/field_of_study/academic_departments
p1020
aVeducation/educational_institution/colors
p1021
aVfilm/film/edited_by
p1022
aVfood/dietary_restriction/compatible_ingredients
p1023
aVcvg/computer_game_region/versions_released_in_this_region
p1024
aVbase/schemastaging/disputed_location_claimant/disputed_territories
p1025
aVdining/restaurant/cuisine
p1026
aVdataworld/gardening_hint/split_to
p1027
aVmetropolitan_transit/transit_line/terminuses
p1028
aVeducation/school/highest_grade_taught
p1029
aVfictional_universe/fictional_organization/members
p1030
aVsoccer/football_pitch/matches
p1031
aVeducation/educational_institution/mascot
p1032
aVbase/nascar/nascar_racing_organization/owners
p1033
aVbasketball/basketball_player/position_s
p1034
aVbase/cinemainspector/person_sign/star_sign
p1035
aVtravel/accommodation/accommodation_type
p1036
aVfilm/film/subjects
p1037
aVgovernment/political_party/ideology
p1038
aVuser/alexander/philosophy/subject/philosophers
p1039
aVbase/peleton/road_bicycle_racing_event/teams_participating_uci_protour
p1040
aVbook/poem/verse_form
p1041
aVbase/barbie/barbie_theme/dolls_with_this_theme
p1042
aVbusiness/product_line/products
p1043
aVeducation/fraternity_sorority/founded_location
p1044
aVmusic/featured_artist/recordings
p1045
aVbase/statistics/statistics_agency/geographic_scope
p1046
aVevent/disaster_type/disasters_of_this_type
p1047
aVfilm/film/cinematography
p1048
aVchemistry/chemical_element/discoverer
p1049
aVtheater/theater_producer/plays_produced
p1050
aVuser/sue_anne/default_domain/olympic_medal_event/gold_medalist
p1051
aVbook/book/characters
p1052
aVcomic_books/comic_book_character/story_specific_appearances
p1053
aVtheater/theater/theatrical_productions_staged_here
p1054
aVuser/robert/us_congress/congressional_caucus/current_house_members
p1055
aVbase/classiccars/vintage_car/body_styles_produced
p1056
aVuser/radiusrs/default_domain/astrological_sign/element
p1057
aVtravel/accommodation/features
p1058
aVbase/thoroughbredracing/thoroughbred_racehorse/sire
p1059
aVtime/event/included_in_event
p1060
aVuser/thadguidry/default_domain/broadcast_satellite/beam_area
p1061
aVbase/morelaw/lawsuit/plaintiff
p1062
aVbase/saturdaynightlive/snl_episode/musical_guest
p1063
aVgeography/geographical_feature/category
p1064
aVsports/sport/related_equipment
p1065
aVaward/competitor/competitions
p1066
aVspaceflight/space_mission/destination
p1067
aVcomputer/software_genre/subgenres
p1068
aVlocation/location/contains_major_portion_of
p1069
aVuser/alexander/misc/murderer/people_murdered
p1070
aVbase/skosbase/skos_concept_scheme/concepts
p1071
aVcvg/computer_game_compilation/games_included
p1072
aVlaw/constitutional_convention_delegate/constitutional_conventions
p1073
aVfictional_universe/fictional_character/based_on
p1074
aVorganization/leadership/role
p1075
aVamerican_football/football_game/season
p1076
aVuser/jeremy/default_domain/mma_fighter/next_opponent
p1077
aVlanguage/language_writing_system/parent_writing_systems
p1078
aVfilm/film_genre/films_in_this_genre
p1079
aVgames/game/origin
p1080
aVgeography/mountain/mountain_range
p1081
aVcvg/cvg_designer/games_designed
p1082
aVevent/disaster/areas_affected
p1083
aVfood/ingredient/incompatible_with_dietary_restrictions
p1084
aVtime/recurring_event/current_frequency
p1085
aVcomputer/computer_processor/used_in_computers
p1086
aVuser/ndunham/default_domain/uol_drama/subject
p1087
aVtype/property/expected_type
p1088
aVuser/hedgehog/default_domain/verifiable_statement/author
p1089
aVmedia_common/netflix_genre/titles
p1090
aVbase/survivor/survivor_season/contestants
p1091
aVbook/short_non_fiction_variety/works
p1092
aVmedicine/drug_formulation_category/drug_formulations
p1093
aVeducation/department/academics_old
p1094
aVgames/game/genre
p1095
aVuser/rcheramy/default_domain/hockey_team/city
p1096
aVtv/tv_program/soundtrack
p1097
aVgeography/mountaineer/first_ascents
p1098
aVcvg/cvg_genre/games
p1099
aVlanguage/human_language/language_family
p1100
aVtv/tv_series_episode/series
p1101
aVbase/aareas/schema/administrative_area/administrative_children
p1102
aVfilm/content_rating_system/film_ratings
p1103
aVbase/songsfromtv/songs_featured/songs_featured
p1104
aVuser/narphorium/default_domain/profession/specializations
p1105
aVmedicine/drug_manufacturer/drugs_manufactured
p1106
aVpeople/person/children
p1107
aVtheater/theater_production/producer
p1108
aVbase/locations/continents/countries_within
p1109
aVastronomy/extraterrestrial_location/type_of_planetographic_feature
p1110
aVbook/translation/translation_of
p1111
aVuser/robert/roman_empire/roman_emperor/title
p1112
aVpeople/person/ethnicity
p1113
aVmusic/release_track/release
p1114
aVtheater/theatrical_composer/plays_composed
p1115
aVbook/poetic_verse_form/poems_of_this_form
p1116
aVgeography/island_group/islands_in_group
p1117
aVreligion/religious_organization/jurisdictions
p1118
aVbroadcast/producer/produces
p1119
aVcvg/cvg_developer/games_developed
p1120
aVmusic/album/genre
p1121
aVdigicams/camera_uncompressed_format/cameras
p1122
aVmeteorology/tropical_cyclone/affected_areas
p1123
aVbase/activism/organization/area_of_activism
p1124
aVbase/bioventurist/technology_class/products_involving_this_technology
p1125
aVbase/nascar/nascar_race_instance/race
p1126
aVarchitecture/destruction_method/structures_destroyed
p1127
aVtv/tv_program_creator/programs_created
p1128
aVuser/robert/roman_empire/roman_region/emperors
p1129
aVeducation/educational_institution/sports_teams
p1130
aVbusiness/company_advisor/companies_advised
p1131
aVbroadcast/content/location
p1132
aVarchitecture/lighthouse/construction
p1133
aVsports/sports_championship_event/champion
p1134
aVtype/type/domain
p1135
aVfictional_universe/fictional_universe/organizations
p1136
aVuser/kwelle/default_domain/snooker_tournament/tournament_location
p1137
aVcomputer/operating_system/supported_architectures
p1138
aVopera/librettist/libretti
p1139
aVcvg/game_version/publisher
p1140
aVsports/sports_team/sport
p1141
aVbroadcast/distributor/distributes
p1142
aVtheater/theatrical_orchestrator/plays_orchestrated
p1143
aVbase/nascar/nascar_driver/team
p1144
aVmeteorology/tropical_cyclone_season/tropical_cyclones
p1145
aVmedicine/drug_formulation/formulation_of
p1146
aVbase/thoroughbredracing/thoroughbred_racehorse/breeder
p1147
aVbase/musicfestival/music_festival_event/artists
p1148
aVreligion/religion/is_part_of
p1149
aVuser/micahsaul/advertising/ad_campaign/advertised_thing
p1150
aVpeople/place_of_interment/interred_here
p1151
aVbook/book_edition/author_editor
p1152
aVastronomy/astronomical_discovery/discoverer
p1153
aVeducation/educational_institution/school_type
p1154
aVroyalty/royal_line/succeeded_by
p1155
aVcomputer/programming_language_paradigm/languages
p1156
aVmedicine/manufactured_drug_form/flavor
p1157
aVmedicine/infectious_disease/vaccine
p1158
aVfood/ingredient/cuisine
p1159
aVbasketball/basketball_coach/team
p1160
aVtheater/theater_production/performed_at
p1161
aVmusic/album/release_type
p1162
aVroyalty/kingdom/rulers
p1163
aVamusement_parks/roller_coaster/material
p1164
aVmusic/concert_tour/artist
p1165
aVuser/tsturge/language/letter/alphabet
p1166
aVarchitecture/structure/contractor
p1167
aVautomotive/model/generations
p1168
aVuser/thalendar/default_domain/roleplaying_game/language
p1169
aVbase/patronage/patron/patronized_sector
p1170
aVcomputer/file_format/extended_from
p1171
aVreligion/religious_organization/associated_with
p1172
aVfilm/film/production_companies
p1173
aVmartial_arts/martial_art/category
p1174
aVbase/dancingwiththestars/season/celebrity_performer
p1175
aVuser/skud/boats/vessel/use
p1176
aVfilm/film_subject/films
p1177
aVcomic_books/comic_book_series/featured_characters
p1178
aVtv/tv_series_episode/writer
p1179
aVlocation/location/partially_contains
p1180
aVmetropolitan_transit/transit_service_type/transit_lines
p1181
aVarchitecture/structure/architect
p1182
aVbiology/organism_classification/lower_classifications
p1183
aVwine/wine_sub_region/wines
p1184
aVgovernment/government_service/operating_organization
p1185
aVfictional_universe/fictional_setting/languages
p1186
aVmetropolitan_transit/transit_line/vehicle_types
p1187
aVtravel/travel_destination/how_to_get_here
p1188
aVuser/alecf/default_domain/audio_program_host/shows_hosted
p1189
aVaviation/airline/focus_cities
p1190
aVeducation/educational_institution/subsidiary_or_constituent_schools
p1191
aVmusic/group_member/vocal_range
p1192
aVaward/award_category/category_of
p1193
aVmedicine/medical_specialty/hospitals_with_this_specialty
p1194
aVbase/services/insurance_type/insurers
p1195
aVbaseball/baseball_league/teams
p1196
aVcomic_books/comic_book_genre/stories_in_this_genre
p1197
aVcvg/cvg_developer/game_versions_developed
p1198
aVbase/litcentral/focal_location/generic_landscape_description
p1199
aVbase/schemastaging/educational_institution_extra/libraries
p1200
aVbase/infrastructure/power_plant_type/power_station
p1201
aVbase/bioventurist/technology_class/company_involved
p1202
aVinternet/blogger/blog
p1203
aVwine/wine/region
p1204
aVbase/petbreeds/dog_breed/exercise_requirement
p1205
aVbase/survivor/survivor_contestant/awarded_immunity
p1206
aVcvg/game_version/distributed_through
p1207
aVfood/beer/beer_style
p1208
aVvisual_art/artwork/belongs_to_series
p1209
aVlanguage/language_family/geographic_distribution
p1210
aVgovernment/governmental_jurisdiction/government_positions
p1211
aVbase/pethealth/diagnosis/used_to_diagnose
p1212
aVamusement_parks/ride/designer
p1213
aVfashion/garment/specialization_of
p1214
aVtv/tv_program/seasons
p1215
aVuser/kesava/indian_railways_base/railway_zone/divisions
p1216
aVbroadcast/content/producer
p1217
aVgeography/lake/cities
p1218
aVbase/roses/rose_color/roses_of_this_color
p1219
aVchemistry/chemical_element/isotopes
p1220
aVgames/game/designer
p1221
aVbase/wrestling/professional_wrestling_manager/managed
p1222
aVtheater/theater_genre/plays_in_this_genre
p1223
aVautomotive/model/successor
p1224
aVbook/magazine_genre/magazines_in_this_genre
p1225
aVbase/philbsuniverse/musical_album_detailed_view/artist_s_or_band_s
p1226
aVmilitary/military_combatant/armed_forces
p1227
aVgeography/island/island_group
p1228
aVlocation/fr_region/departments
p1229
aVbook/periodical_subject/periodicals
p1230
aVbusiness/business_location/in_shopping_center
p1231
aVfictional_universe/fictional_character/places_lived
p1232
aVprotected_sites/protected_site/iucn_category
p1233
aVlocation/administrative_division/first_level_division_of
p1234
aVbroadcast/broadcast/area_served
p1235
aVcomputer/software/developer
p1236
aVspaceflight/astronaut/missions
p1237
aVorganization/organization/geographic_scope
p1238
aVamusement_parks/ride/manufacturer
p1239
aVgeography/geographical_feature_category/features
p1240
aVuser/cip22/default_domain/design_pattern/pattern_type
p1241
aVmedicine/drug/marketed_formulations
p1242
aVbase/saturdaynightlive/snl_host/episodes_hosted
p1243
aVbase/formula1/formula_1_grand_prix/country
p1244
aVsports/professional_sports_team/owner_s
p1245
aVmedia_common/quotation/spoken_by_character
p1246
aVmusic/group_member/instruments_played
p1247
aVfictional_universe/person_in_fiction/representations_in_fiction
p1248
aVuser/mt/default_domain/metabolite/chemical_species
p1249
aVlocation/country/languages_spoken
p1250
aVtime/holiday/day_of_year
p1251
aVeducation/academic/advisees
p1252
aVmusic/recording/canonical_version
p1253
aVeducation/department/field
p1254
aVbase/barbie/barbie_doll/theme
p1255
aVfilm/film/costume_design_by
p1256
aVtv/tv_series_episode/previous_episode
p1257
aVbase/rugby/rugby_player/type_of_rugby
p1258
aVastronomy/orbital_relationship/orbits
p1259
aVuser/druderman/default_domain/gene/species
p1260
aVfilm/film_featured_song/performed_by
p1261
aVmusic/compositional_form/compositions
p1262
aVopera/opera/language
p1263
aVsoccer/football_team/matches
p1264
aVfictional_universe/character_occupation/characters_with_this_occupation
p1265
aVfilm/film/soundtrack
p1266
aVmusic/conductor/operas_conducted
p1267
aVchemistry/chemical_element/discovering_country
p1268
aVmedicine/medical_treatment/used_to_treat
p1269
aVmilitary/military_person/participated_in_conflicts
p1270
aVbook/book_subject/works
p1271
aVprotected_sites/protected_site/governing_body
p1272
aVexhibitions/exhibition_producer/exhibitions_produced
p1273
aVbase/recordingstudios/studio_musician/insturments_played
p1274
aVbase/disaster2/train_accident_cause/train_accidents_caused_this_way
p1275
aVautomotive/model/make
p1276
aVbase/bioventurist/bv_medical_condition/company_involved
p1277
aVbase/saturdaynightlive/snl_five_timer/five_timers_of_this_type
p1278
aVbase/schemastaging/scholastic_library/institution
p1279
aVbase/lookalikes/twin/twin_members
p1280
aVmusic/featured_artist/albums
p1281
aVcvg/game_version/developer
p1282
aVbase/americancomedy/celebrity_impressionist/celebrities_impersonated
p1283
aVgeography/body_of_water/islands
p1284
aVorganization/organization/legal_structure
p1285
aVuser/jamie/military_awards/award/service
p1286
aVbase/qualia/type_of_disability/support_advocacy_groups
p1287
aVroyalty/monarch/royal_line
p1288
aVmusic/genre/subgenre
p1289
aVbase/fictionaluniverse/fictional_killer/characters_killed
p1290
aVbiology/pedigreed_animal/breed
p1291
aVlocation/country/second_level_divisions
p1292
aVgeography/geographical_feature_category/subcategory_of
p1293
aVcricket/cricket_bowler/bowling_style
p1294
aVbase/newsevents/photographer/pictures_taken
p1295
aVmetropolitan_transit/transit_agency/systems
p1296
aVautomotive/make/parent_company
p1297
aVinternet/website/status
p1298
aVfilm/film/directed_by
p1299
aVreligion/founding_figure/religion_founded
p1300
aVbase/petbreeds/cat_temperament/cat_breeds
p1301
aVgovernment/governmental_jurisdiction/government_bodies
p1302
aVbase/skosbase/vocabulary_equivalent_topic/equivalent_concept
p1303
aVaviation/airport_operator/airports_operated
p1304
aVuser/saiyr/Computers/web_framework/license
p1305
aVbaseball/baseball_position/players
p1306
aVtype/domain/types
p1307
aVvisual_art/visual_art_genre/artworks
p1308
aVbase/eating/practicer_of_diet/diet
p1309
aVbase/aareas/schema/administrative_area/subdividing_type
p1310
aVlanguage/human_language/main_country
p1311
aVmusic/album_release_type/albums
p1312
aVuser/tsegaran/language/phrase/original_language
p1313
aVbase/thoroughbredracing/thoroughbred_racehorse/color
p1314
aVreligion/monastery/religious_order
p1315
aVbase/qualia/recreational_drug_user/drug_s
p1316
aVfictional_universe/fictional_language/found_in_fictional_universe
p1317
aVbiology/genome/gene
p1318
aVlocation/country/currency_used
p1319
aVice_hockey/hockey_player/shoots
p1320
aVmedicine/disease/prevention_factors
p1321
aVinternet/website/parent_web_property
p1322
aVtime/recurring_event/instances
p1323
aVbase/breakfast/breakfast_cereal_brand/ingredients
p1324
aVmilitary/military_conflict/military_personnel_involved
p1325
aVuser/alexander/misc/murdered_person/place_murdered
p1326
aVamerican_football/football_team/home_games
p1327
aVbase/saturdaynightlive/snl_musical_guest/episodes_as_musical_guest
p1328
aVfilm/film/featured_song
p1329
aVbase/parody/parodied_subject/parodies
p1330
aVcomputer/computer/includes_models
p1331
aVboats/ship/ship_builder
p1332
aVbase/nascar/nascar_race/race_instances
p1333
aVeducation/field_of_study/journals_in_this_discipline
p1334
aVbase/fight/crime_type/includes_crimes
p1335
aVlaw/inventor/inventions
p1336
aVuser/skud/embassies_and_consulates/embassy/from_country
p1337
aVcricket/cricket_bowler/pace
p1338
aVtheater/play/country_of_origin
p1339
aVfictional_universe/fictional_universe/locations
p1340
aVbook/book/editions
p1341
aVfilm/film_set_designer/film_sets_designed
p1342
aVbase/rugby/rugby_coach/type_of_rugby
p1343
aVcomputer/file_format/genre
p1344
aVbase/technologyofdoing/knowledge_worker_practice/included_in
p1345
aVuser/mcstrother/default_domain/human_pathogenic_microbe/observed_resistances
p1346
aVfilm/producer/films_executive_produced
p1347
aVlocation/postal_code/country
p1348
aVsports/sports_league_season/league
p1349
aVamerican_football/football_game/home_team
p1350
aVastronomy/celestial_object_with_coordinate_system/planetographic_coordinate_system
p1351
aVcommon/topic/notable_types
p1352
aVtv/tv_episode_segment/writer
p1353
aVpeople/person/languages
p1354
aVgeography/mountain/mountain_type
p1355
aVgames/game/derived_from
p1356
aVtv/tv_series_season/episodes
p1357
aVaviation/aircraft_model/accidents
p1358
aVfictional_universe/fictional_setting/universe
p1359
aVbook/book/interior_illustrations_by
p1360
aVopera/opera/genre
p1361
aVdistilled_spirits/distilled_spirit/fermentation_base
p1362
aVcomputer/computer_processor/manufacturers
p1363
aVmetropolitan_transit/transit_line/service_type
p1364
aVmusic/instrument/family
p1365
aVlocation/location/events
p1366
aVarchitecture/building_complex/buildings_in_complex
p1367
aVfilm/film/language
p1368
aVcomputer/internet_protocol/software_used_by
p1369
aVfilm/film/written_by
p1370
aVlocation/hud_county_place/place
p1371
aVdigicams/camera_sensor_type/digital_cameras
p1372
aVbroadcast/content/artist
p1373
aVbook/school_or_movement/associated_authors
p1374
aVuser/alexander/philosophy/era/philosophers
p1375
aVinternet/website/category
p1376
aVbiology/organism_classification_rank/organism_classifications
p1377
aVbase/disaster2/shipwreck_cause/ships_wrecked_this_way
p1378
aVuser/mt/default_domain/biofunction/metabolites
p1379
aVprotected_sites/iucn_category/protected_areas
p1380
aVbase/phobias/phobia/also_caused_by_medical_condition
p1381
aVpeople/family_member/family
p1382
aVbook/book_edition/publisher
p1383
aVbase/fight/sports_official/sport
p1384
aVfood/ingredient/more_specific_ingredient
p1385
aVtravel/hotel_operator/hotels_operated
p1386
aVmedicine/drug_ingredient/active_moiety_of_drug
p1387
aVboats/ship_builder/ships_built
p1388
aVmedicine/drug_formulation/active_ingredient_moieties
p1389
aVbase/crime/criminal_organisation/type_of_criminal_organization
p1390
aVastronomy/asteroid/member_of_asteroid_group
p1391
aVmedicine/drug_class/drugs
p1392
aVgovernment/government_agency/successor_agency
p1393
aVbase/schemastaging/body_of_water_extra/fish
p1394
aVlaw/invention/inventor
p1395
aVtv/tv_program/languages
p1396
aVcomputer/software/languages_used
p1397
aVbiology/organism/place_of_birth
p1398
aVexhibitions/exhibition/produced_by
p1399
aVfictional_universe/fictional_character/species
p1400
aVbase/zionism/settlement/type_of_settlement
p1401
aVbiology/organism/children
p1402
aVlocation/neighborhood/neighborhood_of
p1403
aVbase/filmcameras/camera/manufacturer
p1404
aVlocation/us_county/county_seat
p1405
aVmusic/release_track/recording
p1406
aVgames/game/publisher
p1407
aVmedicine/drug_formulation/routes
p1408
aVtime/holiday/type_of_holiday
p1409
aVbase/aareas/schema/administrative_area/capital
p1410
aVreligion/type_of_place_of_worship/places_of_worship
p1411
aVboats/ship/place_built
p1412
aVfilm/film/genre
p1413
aVmedicine/drug_pregnancy_category/drugs_in_this_category
p1414
aVbase/ndbcd/buoy/owned_by
p1415
aVmusic/release/track
p1416
aVbook/written_work/next_in_series
p1417
aVdistilled_spirits/distilled_spirit_type/blends
p1418
aVmusic/album/featured_artists
p1419
aVbase/pethealth/symptom/symptom_of
p1420
aVspaceflight/satellite_manufacturer/spacecraft_manufactured
p1421
aVuser/duck1123/default_domain/alternate_persona/personae
p1422
aVamerican_football/football_team/conference
p1423
aVaward/hall_of_fame_discipline/halls_of_fame
p1424
aVsoccer/football_position/players
p1425
aVbase/petbreeds/dog_breed/temperament
p1426
aVbase/cars_refactor/generation/model
p1427
aVuser/coco/science/concepts_theories/parent_concept
p1428
aVtype/permission/controls
p1429
aVorganization/organization/place_founded
p1430
aVastronomy/star_system_body/star_system
p1431
aVfood/dish/ingredients
p1432
aVlanguage/language_dialect/language
p1433
aVaviation/aircraft_model/aircraft_type
p1434
aVcomputer/computer_peripheral/compatible_computers
p1435
aVgovernment/government_position_held/office_holder
p1436
aVbusiness/shopping_center_owner/shopping_centers_owned
p1437
aVbase/skosbase/skos_concept/broader
p1438
aVfilm/film_festival_event/festival
p1439
aVbase/fashionmodels/eye_color/fashion_models_with_this_eye_color
p1440
aVinternet/website_status/sites
p1441
aVbook/newspaper/circulation_areas
p1442
aVbase/webvideo/internet_video/genre
p1443
aVbiology/gene/genome
p1444
aVpeople/deceased_person/place_of_death
p1445
aVfictional_universe/fictional_organization/fictional_organization_founder
p1446
aVbiology/breed_origin/breeds_originating_here
p1447
aVtransportation/bridge_type/bridges_of_this_type
p1448
aVbase/schemastaging/recurring_event_extra/location
p1449
aVautomotive/model/predecessor
p1450
aVmusic/album/acquire_webpage
p1451
aVolympics/olympic_games/participating_countries
p1452
aVbook/illustrator/book_editions_illustrated
p1453
aVtv/tv_soundtrack/tv_program
p1454
aVtheater/theater_production/musical_director
p1455
aVcricket/cricket_tournament_event/teams
p1456
aVfictional_universe/ethnicity_in_fiction/characters_of_this_ethnicity
p1457
aVuser/osprey/default_domain/service_area/location
p1458
aVvisual_art/artwork/media
p1459
aVbiology/breed_temperament/breeds
p1460
aVeducation/school_mascot/school
p1461
aVbase/athletics/athletics_event/discipline
p1462
aVarchitecture/museum/director
p1463
aVcomic_books/comic_book_creator/series_created
p1464
aVgovernment/governmental_body/body_this_is_a_component_of
p1465
aVuser/robert/roman_empire/roman_emperor/emperor_of
p1466
aVfilm/film/rating
p1467
aVdining/cuisine/restaurant
p1468
aVbasketball/basketball_division/conference
p1469
aVmusic/artist/supporting_artists
p1470
aVaward/award_discipline/awards_in_this_discipline
p1471
aVmusic/engineer/tracks_engineered
p1472
aVgovernment/political_ideology/political_parties
p1473
aVbook/school_or_movement/associated_works
p1474
aVuser/robert/default_domain/given_name/people
p1475
aVolympics/olympic_games/sports
p1476
aVreligion/religious_jurisdiction_class/jurisdiction
p1477
aVsports/sports_team_coach/sports_coached
p1478
aVsoccer/football_referee/main_referee_for
p1479
aVuser/dylanrocks/national_football_league/nfl_stadiums_where_home_team_lost_the_first_game/team_beaten_by
p1480
aVskiing/ski_area/closest_city
p1481
aVmusic/artist/label
p1482
aVorganization/organization/advisors
p1483
aVbase/petbreeds/exercise_requirements/dog_breed
p1484
aVcomic_strips/comic_strip/genre
p1485
aVsports/school_sports_team/school
p1486
aVbook/author/series_written_or_contributed_to
p1487
aVamerican_football/football_team/division
p1488
aVmusic/composition/language
p1489
aVfilm/film_featured_song/featured_in_film
p1490
aVlocation/us_county/hud_section_8_area
p1491
aVradio/radio_program/subjects
p1492
aVfinance/currency/countries_formerly_used
p1493
aVsports/tournament_event/sport
p1494
aVmetropolitan_transit/transit_system/transit_lines
p1495
aVbase/nascar/nascar_driver/car_make
p1496
aVbase/classiccars/antique_car/body_styles
p1497
aVzoos/zoo_exhibit/species
p1498
aVbook/book/genre
p1499
aVtheater/play/lyricist
p1500
aVsports/sports_league/sport
p1501
aVsports/sport/officials
p1502
aVmusic/composition/musical_key
p1503
aVcvg/gameplay_mode/games_with_this_mode
p1504
aVsports/sports_league/championship
p1505
aVuser/robert/us_congress/us_representative/committee_memberships
p1506
aVtheater/theater_production/producing_company
p1507
aVgames/game_publisher/games_published
p1508
aVbase/mystery/cryptid/type_of_cryptid
p1509
aVbase/thoroughbredracing/thoroughbred_racehorse_origin/horses_from_this_location
p1510
aVbase/animemanga/anime_manga_character/anime_appearances
p1511
aVmusic/record_label/releases
p1512
aVuser/arielb/default_domain/concentration_camp/survivors
p1513
aVmusic/release/producers
p1514
aVbase/terrorism/terrorist_organization/considered_terrorist_by
p1515
aVarchitecture/structure/architecture_firm
p1516
aVbase/cookingsupplyandequipment/cooking_material_supplier/specialization_if_any
p1517
aVbusiness/brand/products
p1518
aVtv/tv_series_season/series
p1519
aVtheater/play/composer
p1520
aVbase/breakfast/breakfast_cereal_mascot/brand
p1521
aVbase/services/veterinarian/veterinary_specialty
p1522
aVuser/mbmuhr/default_domain/non_profit_organization/donors
p1523
aVmusic/recording/releases
p1524
aVolympics/olympic_participating_country/olympics_participated_in
p1525
aVchemistry/phase_of_matter/compounds_in_this_phase_at_stp
p1526
aVbase/petbreeds/dog_coat_color/dog_breeds
p1527
aVbase/roses/roses/named_after
p1528
aVgeography/lake/inflow
p1529
aVgovernment/government_office_or_title/category
p1530
aVuser/radiusrs/default_domain/astrological_sign/zodiac
p1531
aVfilm/music_contributor/film
p1532
aVopera/opera_genre/operas_in_this_genre
p1533
aVbase/services/health_club/exercise_programs
p1534
aVbase/animal_synopses/synopsized_animal/has_synopsis
p1535
aVfilm/film_format/film_format
p1536
aVfilm/film_series/films_in_series
p1537
aVbusiness/product_theme/product_lines
p1538
aVfictional_universe/fictional_character_creator/fictional_characters_created
p1539
aVdigicams/digital_camera/camera_sensor_manufacturer
p1540
aVfilm/film/music
p1541
aVbase/csafarms/csa_product/providers
p1542
aVbase/americancivilwar/military_unit/conflicts_participated_in
p1543
aVsports/boxing_weight_division/boxers_rated_at_this_weight
p1544
aVfictional_universe/fictional_character/medical_conditions
p1545
aVcvg/computer_videogame/peripherals_supported
p1546
aVuser/robert/us_congress/us_representative/state
p1547
aVgeography/river/basin_countries
p1548
aVbase/cocktails/cocktail/standard_garnish
p1549
aVcvg/computer_videogame/prequel
p1550
aVmedicine/drug_form_shape/drugs_with_this_shape
p1551
aVmusic/genre/parent_genre
p1552
aVarchitecture/building/building_function
p1553
aVbase/yalebase/person/worked_on_publications
p1554
aVmedia_common/quotation/subjects
p1555
aVcomputer/computer_emulator/computer
p1556
aVautomotive/make/model_s
p1557
aVmusic/recording/tracks
p1558
aVbase/nasagcmd/gcmd_keyword1/included_within_keyword
p1559
aVlocation/country/first_level_divisions
p1560
aVbase/saints/saint/feast_day
p1561
aVbase/activism/activism_issue/activists
p1562
aVarchitecture/building/building_complex
p1563
aVrail/railway/terminuses
p1564
aVeducation/academic/departments_old
p1565
aVbase/newsevents/photographed_event/photograph_s
p1566
aVgovernment/form_of_government/countries
p1567
aVbiology/organism/sex
p1568
aVbase/skosbase/skos_concept/narrower
p1569
aVbook/short_story/genre
p1570
aVbiology/organism/parents
p1571
aVfictional_universe/fictional_organization/type_of_organization
p1572
aVbasketball/basketball_team/conference
p1573
aVpeople/ethnicity/people
p1574
aVbase/meedan/arabic_language_media_source/country
p1575
aVbase/ikariam/ikariam_resource_category/resources
p1576
aVorganization/organization/founders
p1577
aVgames/game_genre/boardgames
p1578
aVamerican_football/football_coach/current_team_head_coached
p1579
aVmedicine/disease/symptoms
p1580
aVamusement_parks/ride/theme
p1581
aVsports/sports_equipment/sport_used_for
p1582
aVchemistry/chemical_classification/chemicals_of_this_type
p1583
aVtheater/play/orchestrator
p1584
aVbase/skosbase/skos_concept/equivalent_topic
p1585
aVbase/culturalevent/event/entity_involved
p1586
aVmedia_common/quotation_source/quotations
p1587
aVlocation/ar_department/capital
p1588
aVbase/rivalries/rival/rivals
p1589
aVmedicine/drug_ingredient/active_ingredient_of_formulation
p1590
aVcomic_books/comic_book_creator/characters_created
p1591
aVdigicams/digital_camera/supported_storage_types
p1592
aVuser/trondarild/default_domain/medical_sign/associated_condition
p1593
aVfictional_universe/work_of_fiction/part_of_these_fictional_universes
p1594
aVbase/adultentertainment/adult_media/sexual_orientations_displayed
p1595
aVuser/szaijan/fantasy_football/player/position
p1596
aVmusic/album/releases
p1597
aVbase/gadgets/gadget/file_formats
p1598
aVgames/game_designer/games_designed
p1599
aVtime/holiday_period/holidays
p1600
aVboats/ship_class/ships_in_class
p1601
aVbase/ancientegypt/tomb/excavated_by
p1602
aVtype/content/media_type
p1603
aVreligion/religious_leadership_jurisdiction/organisation
p1604
aVcomputer/web_browser/layout_engine
p1605
aVreligion/deity/deity_of
p1606
aVaward/award_presenting_organization/award_categories_presented
p1607
aVbase/aareas/schema/administrative_area_type/pertains_to
p1608
aVmedicine/medical_treatment/side_effects
p1609
aVmedicine/medical_specialty/diseases_treated
p1610
aVfilm/production_company/films
p1611
aVlocation/country/official_language
p1612
aVreligion/religious_practice/practice_of
p1613
aVeducation/school_district/schools
p1614
aVuser/techgnostic/default_domain/magazine_topic/periodical
p1615
aVpeople/profession/specializations
p1616
aVlocation/us_county/hud_county_place
p1617
aVastronomy/celestial_object_category/objects
p1618
aVmartial_arts/martial_artist/martial_arts_students
p1619
aVfilm/film/film_art_direction_by
p1620
aVolympics/olympic_games/host_city
p1621
aVbase/rosetta/languoid/languoid_class
p1622
aVbase/thoroughbredracing/thoroughbred_racehorse_breeder/horses_bred
p1623
aVarchitecture/architectural_style/architects
p1624
aVevent/disaster/type_of_disaster
p1625
aVmedicine/medical_specialty/physicians_with_this_specialty
p1626
aVspaceflight/astronaut/space_agency
p1627
aVbase/activism/activism_issue/supporting_political_parties
p1628
aVfictional_universe/work_of_fiction/setting
p1629
aVeducation/field_of_study/academics_in_this_field
p1630
aVautomotive/generation/make
p1631
atRp1632
.